target datalayout = "e-m:e-p270:32:32-p271:32:32-p272:64:64-i64:64-i128:128-f80:128-n8:16:32:64-S128"
target triple = "x86_64-pc-linux-gnu"

%struct.IsoConnInfo = type { ptr, i32, ptr, ptr, ptr, i32 }

@any_new_notice = internal global i8 0, align 1
@.str.47 = private unnamed_addr constant [7 x i8] c"%s: %s\00", align 1

; Function Attrs: nounwind uwtable
define internal void @isotesterNoticeProcessor(ptr noundef %0, ptr noundef %1) #0 {
  %3 = alloca ptr, align 8
  %4 = alloca ptr, align 8
  %5 = alloca ptr, align 8
  store ptr %0, ptr %3, align 8
  store ptr %1, ptr %4, align 8
  call void @llvm.lifetime.start.p0(i64 8, ptr %5) #11
  %6 = load ptr, ptr %3, align 8
  store ptr %6, ptr %5, align 8
  %7 = load ptr, ptr %5, align 8
  %8 = getelementptr inbounds nuw %struct.IsoConnInfo, ptr %7, i32 0, i32 3
  %9 = load ptr, ptr %8, align 8
  %10 = load ptr, ptr %4, align 8
  %11 = call i32 (ptr, ...) @pg_printf(ptr noundef @.str.47, ptr noundef %9, ptr noundef %10)
  %12 = load ptr, ptr %5, align 8
  %13 = getelementptr inbounds nuw %struct.IsoConnInfo, ptr %12, i32 0, i32 5
  %14 = load i32, ptr %13, align 8
  %15 = add i32 %14, 1
  store i32 %15, ptr %13, align 8
  store i8 1, ptr @any_new_notice, align 1
  call void @llvm.lifetime.end.p0(i64 8, ptr %5) #11
  ret void
}