; Function Attrs: nounwind uwtable
define internal void @isotesterNoticeProcessor(ptr noundef captures(none) %0, ptr noundef %1) #0 {
  %3 = getelementptr inbounds nuw i8, ptr %0, i64 24
  %4 = load ptr, ptr %3, align 8
  %5 = tail call i32 (ptr, ...) @pg_printf(ptr noundef nonnull @.str.47, ptr noundef %4, ptr noundef %1) #17
  %6 = getelementptr inbounds nuw i8, ptr %0, i64 40
  %7 = load i32, ptr %6, align 8
  %8 = add i32 %7, 1
  store i32 %8, ptr %6, align 8
  store i1 true, ptr @any_new_notice, align 1
  ret void
}